; Function Attrs: mustprogress uwtable
define hidden void @_ZN3opt5cores10unsat_coreEv(ptr dead_on_unwind noalias writable sret(%class.ref_vector) align 8 initializes((0, 16)) %0, ptr noundef nonnull readonly align 8 captures(none) dereferenceable(117) %1) local_unnamed_addr #4 align 2 personality ptr @__gxx_personality_v0 {
  %3 = load ptr, ptr %1, align 8, !tbaa !133
  %4 = ptrtoint ptr %3 to i64
  store i64 %4, ptr %0, align 8, !tbaa !6
  %5 = getelementptr inbounds nuw i8, ptr %0, i64 8
  store ptr null, ptr %5, align 8, !tbaa !46
  %6 = getelementptr inbounds nuw i8, ptr %1, i64 8
  %7 = load ptr, ptr %6, align 8, !tbaa !65
  %8 = load ptr, ptr %7, align 8, !tbaa !3
  %9 = getelementptr inbounds nuw i8, ptr %8, i64 24
  %10 = load ptr, ptr %9, align 8
  invoke void %10(ptr noundef nonnull align 8 dereferenceable(72) %7, ptr noundef nonnull align 8 dereferenceable(16) %0)
          to label %13 unwind label %11

11:                                               ; preds = %2
  %12 = landingpad { ptr, i32 }
          cleanup
  tail call void @_ZN15ref_vector_coreI4expr19ref_manager_wrapperIS0_11ast_managerEED2Ev(ptr noundef nonnull align 8 dereferenceable(16) %0) #22
  resume { ptr, i32 } %12

13:                                               ; preds = %2
  ret void
}